target datalayout = "e-m:e-p270:32:32-p271:32:32-p272:64:64-i64:64-i128:128-f80:128-n8:16:32:64-S128"
target triple = "x86_64-pc-linux-gnu"

%"class.std::set" = type { %"class.std::_Rb_tree" }
%"class.std::_Rb_tree" = type { %"struct.std::_Rb_tree<pxrInternal_v0_24__pxrReserved__::TsTest_SampleTimes::SampleTime, pxrInternal_v0_24__pxrReserved__::TsTest_SampleTimes::SampleTime, std::_Identity<pxrInternal_v0_24__pxrReserved__::TsTest_SampleTimes::SampleTime>, std::less<pxrInternal_v0_24__pxrReserved__::TsTest_SampleTimes::SampleTime>>::_Rb_tree_impl" }
%"struct.std::_Rb_tree<pxrInternal_v0_24__pxrReserved__::TsTest_SampleTimes::SampleTime, pxrInternal_v0_24__pxrReserved__::TsTest_SampleTimes::SampleTime, std::_Identity<pxrInternal_v0_24__pxrReserved__::TsTest_SampleTimes::SampleTime>, std::less<pxrInternal_v0_24__pxrReserved__::TsTest_SampleTimes::SampleTime>>::_Rb_tree_impl" = type { [8 x i8], %"struct.std::_Rb_tree_header" }
%"struct.std::_Rb_tree_header" = type { %"struct.std::_Rb_tree_node_base", i64 }
%"struct.std::_Rb_tree_node_base" = type { i32, ptr, ptr, ptr }
%"class.pxrInternal_v0_24__pxrReserved__::TsTest_SampleTimes" = type { i8, %"class.pxrInternal_v0_24__pxrReserved__::TsTest_SplineData", %"class.std::set" }
%"class.pxrInternal_v0_24__pxrReserved__::TsTest_SplineData" = type { i8, %"class.std::set.0", %"struct.pxrInternal_v0_24__pxrReserved__::TsTest_SplineData::Extrapolation", %"struct.pxrInternal_v0_24__pxrReserved__::TsTest_SplineData::Extrapolation", %"struct.pxrInternal_v0_24__pxrReserved__::TsTest_SplineData::InnerLoopParams" }
%"class.std::set.0" = type { %"class.std::_Rb_tree.1" }
%"class.std::_Rb_tree.1" = type { %"struct.std::_Rb_tree<pxrInternal_v0_24__pxrReserved__::TsTest_SplineData::Knot, pxrInternal_v0_24__pxrReserved__::TsTest_SplineData::Knot, std::_Identity<pxrInternal_v0_24__pxrReserved__::TsTest_SplineData::Knot>, std::less<pxrInternal_v0_24__pxrReserved__::TsTest_SplineData::Knot>>::_Rb_tree_impl" }
%"struct.std::_Rb_tree<pxrInternal_v0_24__pxrReserved__::TsTest_SplineData::Knot, pxrInternal_v0_24__pxrReserved__::TsTest_SplineData::Knot, std::_Identity<pxrInternal_v0_24__pxrReserved__::TsTest_SplineData::Knot>, std::less<pxrInternal_v0_24__pxrReserved__::TsTest_SplineData::Knot>>::_Rb_tree_impl" = type { [8 x i8], %"struct.std::_Rb_tree_header" }
%"struct.pxrInternal_v0_24__pxrReserved__::TsTest_SplineData::Extrapolation" = type <{ i32, [4 x i8], double, i32, [4 x i8] }>
%"struct.pxrInternal_v0_24__pxrReserved__::TsTest_SplineData::InnerLoopParams" = type { i8, double, double, double, double, i8, double }

; Function Attrs: noreturn nounwind uwtable
define linkonce_odr hidden void @__clang_call_terminate(ptr noundef %0) #5 comdat {
  %2 = call ptr @__cxa_begin_catch(ptr %0) #11
  call void @_ZSt9terminatev() #12
  unreachable
}

; Function Attrs: mustprogress nounwind uwtable
define linkonce_odr void @_ZNSt15_Rb_tree_header8_M_resetEv(ptr noundef nonnull align 8 dereferenceable(40) %0) #0 comdat align 2 {
  %2 = alloca ptr, align 8
  store ptr %0, ptr %2, align 8
  %3 = load ptr, ptr %2, align 8
  %4 = getelementptr inbounds nuw %"struct.std::_Rb_tree_header", ptr %3, i32 0, i32 0
  %5 = getelementptr inbounds nuw %"struct.std::_Rb_tree_node_base", ptr %4, i32 0, i32 1
  store ptr null, ptr %5, align 8
  %6 = getelementptr inbounds nuw %"struct.std::_Rb_tree_header", ptr %3, i32 0, i32 0
  %7 = getelementptr inbounds nuw %"struct.std::_Rb_tree_header", ptr %3, i32 0, i32 0
  %8 = getelementptr inbounds nuw %"struct.std::_Rb_tree_node_base", ptr %7, i32 0, i32 2
  store ptr %6, ptr %8, align 8
  %9 = getelementptr inbounds nuw %"struct.std::_Rb_tree_header", ptr %3, i32 0, i32 0
  %10 = getelementptr inbounds nuw %"struct.std::_Rb_tree_header", ptr %3, i32 0, i32 0
  %11 = getelementptr inbounds nuw %"struct.std::_Rb_tree_node_base", ptr %10, i32 0, i32 3
  store ptr %9, ptr %11, align 8
  %12 = getelementptr inbounds nuw %"struct.std::_Rb_tree_header", ptr %3, i32 0, i32 1
  store i64 0, ptr %12, align 8
  ret void
}

; Function Attrs: mustprogress nounwind uwtable
define linkonce_odr void @_ZNSt15__new_allocatorISt13_Rb_tree_nodeIN32pxrInternal_v0_24__pxrReserved__18TsTest_SampleTimes10SampleTimeEEEC2Ev(ptr noundef nonnull align 1 dereferenceable(1) %0) unnamed_addr #0 comdat align 2 {
  %2 = alloca ptr, align 8
  store ptr %0, ptr %2, align 8
  ret void
}

; Function Attrs: mustprogress nounwind uwtable
define linkonce_odr void @_ZNSt15_Rb_tree_headerC2Ev(ptr noundef nonnull align 8 dereferenceable(40) %0) unnamed_addr #0 comdat align 2 personality ptr @__gxx_personality_v0 {
  %2 = alloca ptr, align 8
  store ptr %0, ptr %2, align 8
  %3 = load ptr, ptr %2, align 8
  %4 = getelementptr inbounds nuw %"struct.std::_Rb_tree_header", ptr %3, i32 0, i32 0
  %5 = getelementptr inbounds nuw %"struct.std::_Rb_tree_node_base", ptr %4, i32 0, i32 0
  store i32 0, ptr %5, align 8
  invoke void @_ZNSt15_Rb_tree_header8_M_resetEv(ptr noundef nonnull align 8 dereferenceable(40) %3)
          to label %6 unwind label %7

6:                                                ; preds = %1
  ret void

7:                                                ; preds = %1
  %8 = landingpad { ptr, i32 }
          catch ptr null
  %9 = extractvalue { ptr, i32 } %8, 0
  call void @__clang_call_terminate(ptr %9) #12
  unreachable
}

; Function Attrs: mustprogress nounwind uwtable
define linkonce_odr void @_ZNSt20_Rb_tree_key_compareISt4lessIN32pxrInternal_v0_24__pxrReserved__18TsTest_SampleTimes10SampleTimeEEEC2Ev(ptr noundef nonnull align 1 dereferenceable(1) %0) unnamed_addr #0 comdat align 2 {
  %2 = alloca ptr, align 8
  store ptr %0, ptr %2, align 8
  ret void
}

; Function Attrs: mustprogress nounwind uwtable
define linkonce_odr void @_ZNSaISt13_Rb_tree_nodeIN32pxrInternal_v0_24__pxrReserved__18TsTest_SampleTimes10SampleTimeEEEC2Ev(ptr noundef nonnull align 1 dereferenceable(1) %0) unnamed_addr #0 comdat align 2 {
  %2 = alloca ptr, align 8
  store ptr %0, ptr %2, align 8
  %3 = load ptr, ptr %2, align 8
  call void @_ZNSt15__new_allocatorISt13_Rb_tree_nodeIN32pxrInternal_v0_24__pxrReserved__18TsTest_SampleTimes10SampleTimeEEEC2Ev(ptr noundef nonnull align 1 dereferenceable(1) %3) #11
  ret void
}

; Function Attrs: mustprogress nounwind uwtable
define linkonce_odr void @_ZNSt8_Rb_treeIN32pxrInternal_v0_24__pxrReserved__18TsTest_SampleTimes10SampleTimeES2_St9_IdentityIS2_ESt4lessIS2_ESaIS2_EE13_Rb_tree_implIS6_Lb1EEC2Ev(ptr noundef nonnull align 8 dereferenceable(48) %0) unnamed_addr #0 comdat align 2 {
  %2 = alloca ptr, align 8
  store ptr %0, ptr %2, align 8
  %3 = load ptr, ptr %2, align 8
  call void @_ZNSaISt13_Rb_tree_nodeIN32pxrInternal_v0_24__pxrReserved__18TsTest_SampleTimes10SampleTimeEEEC2Ev(ptr noundef nonnull align 1 dereferenceable(1) %3) #11
  call void @_ZNSt20_Rb_tree_key_compareISt4lessIN32pxrInternal_v0_24__pxrReserved__18TsTest_SampleTimes10SampleTimeEEEC2Ev(ptr noundef nonnull align 1 dereferenceable(1) %3) #11
  %4 = getelementptr inbounds i8, ptr %3, i64 8
  call void @_ZNSt15_Rb_tree_headerC2Ev(ptr noundef nonnull align 8 dereferenceable(40) %4) #11
  ret void
}

; Function Attrs: mustprogress nounwind uwtable
define linkonce_odr void @_ZNSt8_Rb_treeIN32pxrInternal_v0_24__pxrReserved__18TsTest_SampleTimes10SampleTimeES2_St9_IdentityIS2_ESt4lessIS2_ESaIS2_EEC2Ev(ptr noundef nonnull align 8 dereferenceable(48) %0) unnamed_addr #0 comdat align 2 {
  %2 = alloca ptr, align 8
  store ptr %0, ptr %2, align 8
  %3 = load ptr, ptr %2, align 8
  %4 = getelementptr inbounds nuw %"class.std::_Rb_tree", ptr %3, i32 0, i32 0
  call void @_ZNSt8_Rb_treeIN32pxrInternal_v0_24__pxrReserved__18TsTest_SampleTimes10SampleTimeES2_St9_IdentityIS2_ESt4lessIS2_ESaIS2_EE13_Rb_tree_implIS6_Lb1EEC2Ev(ptr noundef nonnull align 8 dereferenceable(48) %4) #11
  ret void
}

; Function Attrs: mustprogress nounwind uwtable
define linkonce_odr void @_ZNSt3setIN32pxrInternal_v0_24__pxrReserved__18TsTest_SampleTimes10SampleTimeESt4lessIS2_ESaIS2_EEC2Ev(ptr noundef nonnull align 8 dereferenceable(48) %0) unnamed_addr #0 comdat align 2 {
  %2 = alloca ptr, align 8
  store ptr %0, ptr %2, align 8
  %3 = load ptr, ptr %2, align 8
  %4 = getelementptr inbounds nuw %"class.std::set", ptr %3, i32 0, i32 0
  call void @_ZNSt8_Rb_treeIN32pxrInternal_v0_24__pxrReserved__18TsTest_SampleTimes10SampleTimeES2_St9_IdentityIS2_ESt4lessIS2_ESaIS2_EEC2Ev(ptr noundef nonnull align 8 dereferenceable(48) %4) #11
  ret void
}

; Function Attrs: mustprogress uwtable
define void @_ZN32pxrInternal_v0_24__pxrReserved__18TsTest_SampleTimesC2ERKNS_17TsTest_SplineDataE(ptr noundef nonnull align 8 dereferenceable(216) %0, ptr noundef nonnull align 8 dereferenceable(160) %1) unnamed_addr #2 align 2 {
  %3 = alloca ptr, align 8
  %4 = alloca ptr, align 8
  store ptr %0, ptr %3, align 8
  store ptr %1, ptr %4, align 8
  %5 = load ptr, ptr %3, align 8
  %6 = getelementptr inbounds nuw %"class.pxrInternal_v0_24__pxrReserved__::TsTest_SampleTimes", ptr %5, i32 0, i32 0
  store i8 1, ptr %6, align 8
  %7 = getelementptr inbounds nuw %"class.pxrInternal_v0_24__pxrReserved__::TsTest_SampleTimes", ptr %5, i32 0, i32 1
  %8 = load ptr, ptr %4, align 8
  call void @_ZN32pxrInternal_v0_24__pxrReserved__17TsTest_SplineDataC1ERKS0_(ptr noundef nonnull align 8 dereferenceable(160) %7, ptr noundef nonnull align 8 dereferenceable(160) %8)
  %9 = getelementptr inbounds nuw %"class.pxrInternal_v0_24__pxrReserved__::TsTest_SampleTimes", ptr %5, i32 0, i32 2
  call void @_ZNSt3setIN32pxrInternal_v0_24__pxrReserved__18TsTest_SampleTimes10SampleTimeESt4lessIS2_ESaIS2_EEC2Ev(ptr noundef nonnull align 8 dereferenceable(48) %9) #11
  ret void
}