; Function Attrs: mustprogress uwtable
define void @_ZN32pxrInternal_v0_24__pxrReserved__18TsTest_SampleTimesC2ERKNS_17TsTest_SplineDataE(ptr noundef nonnull align 8 dereferenceable(216) %0, ptr noundef nonnull align 8 dereferenceable(160) %1) unnamed_addr #3 align 2 personality ptr @__gxx_personality_v0 {
  store i8 1, ptr %0, align 8
  %3 = getelementptr inbounds nuw i8, ptr %0, i64 8
  tail call void @_ZN32pxrInternal_v0_24__pxrReserved__17TsTest_SplineDataC1ERKS0_(ptr noundef nonnull align 8 dereferenceable(160) %3, ptr noundef nonnull align 8 dereferenceable(160) %1)
  %4 = getelementptr inbounds i8, ptr %0, i64 176
  store i32 0, ptr %4, align 8
  %5 = getelementptr inbounds i8, ptr %0, i64 184
  store ptr null, ptr %5, align 8
  %6 = getelementptr inbounds i8, ptr %0, i64 192
  store ptr %4, ptr %6, align 8
  %7 = getelementptr inbounds i8, ptr %0, i64 200
  store ptr %4, ptr %7, align 8
  %8 = getelementptr inbounds i8, ptr %0, i64 208
  store i64 0, ptr %8, align 8
  ret void
}